; Function Attrs: mustprogress nofree norecurse nosync nounwind ssp willreturn memory(argmem: readwrite) uwtable
define internal noundef zeroext i1 @"_ZNSt17_Function_handlerIFbRKSt10shared_ptrIN6open3d8geometry10OctreeNodeEERKS0_INS2_14OctreeNodeInfoEEEZNS2_9VoxelGrid16CreateFromOctreeERKNS2_6OctreeEE3$_0E10_M_managerERSt9_Any_dataRKSI_St18_Manager_operation"(ptr noundef nonnull writeonly align 8 captures(none) dereferenceable(16) %0, ptr noundef nonnull align 8 dereferenceable(16) %1, i32 noundef %2) #29 align 2 personality ptr @__gxx_personality_v0 {
  switch i32 %2, label %"_ZNSt14_Function_base13_Base_managerIZN6open3d8geometry9VoxelGrid16CreateFromOctreeERKNS2_6OctreeEE3$_0E10_M_managerERSt9_Any_dataRKS9_St18_Manager_operation.exit" [
    i32 0, label %4
    i32 1, label %5
    i32 2, label %6
  ]

4:                                                ; preds = %3
  store ptr @"_ZTIZN6open3d8geometry9VoxelGrid16CreateFromOctreeERKNS0_6OctreeEE3$_0", ptr %0, align 8, !tbaa !775
  br label %"_ZNSt14_Function_base13_Base_managerIZN6open3d8geometry9VoxelGrid16CreateFromOctreeERKNS2_6OctreeEE3$_0E10_M_managerERSt9_Any_dataRKS9_St18_Manager_operation.exit"

5:                                                ; preds = %3
  store ptr %1, ptr %0, align 8, !tbaa !104
  br label %"_ZNSt14_Function_base13_Base_managerIZN6open3d8geometry9VoxelGrid16CreateFromOctreeERKNS2_6OctreeEE3$_0E10_M_managerERSt9_Any_dataRKS9_St18_Manager_operation.exit"

6:                                                ; preds = %3
  %.val.i = load i64, ptr %1, align 8, !tbaa !739
  store i64 %.val.i, ptr %0, align 8, !tbaa !739
  br label %"_ZNSt14_Function_base13_Base_managerIZN6open3d8geometry9VoxelGrid16CreateFromOctreeERKNS2_6OctreeEE3$_0E10_M_managerERSt9_Any_dataRKS9_St18_Manager_operation.exit"

"_ZNSt14_Function_base13_Base_managerIZN6open3d8geometry9VoxelGrid16CreateFromOctreeERKNS2_6OctreeEE3$_0E10_M_managerERSt9_Any_dataRKS9_St18_Manager_operation.exit": ; preds = %3, %6, %5, %4
  ret i1 false
}